target datalayout = "e-m:e-p270:32:32-p271:32:32-p272:64:64-i64:64-i128:128-f80:128-n8:16:32:64-S128"
target triple = "x86_64-pc-linux-gnu"

%struct.FFTaskCallbacks = type { ptr, i32, i32, ptr }

; Function Attrs: nounwind uwtable
define ptr @ff_vvc_executor_alloc(ptr noundef %0, i32 noundef %1) #0 {
  %3 = alloca ptr, align 8
  %4 = alloca i32, align 4
  %5 = alloca %struct.FFTaskCallbacks, align 8
  store ptr %0, ptr %3, align 8, !tbaa !4
  store i32 %1, ptr %4, align 4, !tbaa !9
  call void @llvm.lifetime.start.p0(i64 24, ptr %5) #7
  %6 = getelementptr inbounds nuw %struct.FFTaskCallbacks, ptr %5, i32 0, i32 0
  %7 = load ptr, ptr %3, align 8, !tbaa !4
  store ptr %7, ptr %6, align 8, !tbaa !11
  %8 = getelementptr inbounds nuw %struct.FFTaskCallbacks, ptr %5, i32 0, i32 1
  store i32 4580576, ptr %8, align 8, !tbaa !13
  %9 = getelementptr inbounds nuw %struct.FFTaskCallbacks, ptr %5, i32 0, i32 2
  store i32 3, ptr %9, align 4, !tbaa !14
  %10 = getelementptr inbounds nuw %struct.FFTaskCallbacks, ptr %5, i32 0, i32 3
  store ptr @task_run, ptr %10, align 8, !tbaa !15
  %11 = load i32, ptr %4, align 4, !tbaa !9
  %12 = call ptr @ff_executor_alloc(ptr noundef %5, i32 noundef %11)
  call void @llvm.lifetime.end.p0(i64 24, ptr %5) #7
  ret ptr %12
}