; Function Attrs: nounwind uwtable
define ptr @ff_vvc_executor_alloc(ptr noundef %0, i32 noundef %1) local_unnamed_addr #0 {
  %3 = alloca %struct.FFTaskCallbacks, align 8
  call void @llvm.lifetime.start.p0(i64 24, ptr nonnull %3) #7
  store ptr %0, ptr %3, align 8, !tbaa !4
  %4 = getelementptr inbounds nuw i8, ptr %3, i64 8
  store i32 4580576, ptr %4, align 8, !tbaa !10
  %5 = getelementptr inbounds nuw i8, ptr %3, i64 12
  store i32 3, ptr %5, align 4, !tbaa !11
  %6 = getelementptr inbounds nuw i8, ptr %3, i64 16
  store ptr @task_run, ptr %6, align 8, !tbaa !12
  %7 = call ptr @ff_executor_alloc(ptr noundef nonnull %3, i32 noundef %1) #7
  call void @llvm.lifetime.end.p0(i64 24, ptr nonnull %3) #7
  ret ptr %7
}